target datalayout = "e-m:e-p270:32:32-p271:32:32-p272:64:64-i64:64-i128:128-f80:128-n8:16:32:64-S128"
target triple = "x86_64-pc-linux-gnu"

%struct.asn1_string_st = type { i32, i32, ptr, i64 }

@.str.27 = private unnamed_addr constant [15 x i8] c"Bad time value\00", align 1

; Function Attrs: nounwind uwtable
define hidden i32 @ASN1_TIME_print(ptr noundef %0, ptr noundef %1) #0 {
  %3 = alloca i32, align 4
  %4 = alloca ptr, align 8
  %5 = alloca ptr, align 8
  store ptr %0, ptr %4, align 8, !tbaa !15
  store ptr %1, ptr %5, align 8, !tbaa !45
  %6 = load ptr, ptr %5, align 8, !tbaa !45
  %7 = getelementptr inbounds nuw %struct.asn1_string_st, ptr %6, i32 0, i32 1
  %8 = load i32, ptr %7, align 4, !tbaa !49
  %9 = icmp eq i32 %8, 23
  br i1 %9, label %10, label %14

10:                                               ; preds = %2
  %11 = load ptr, ptr %4, align 8, !tbaa !15
  %12 = load ptr, ptr %5, align 8, !tbaa !45
  %13 = call i32 @ASN1_UTCTIME_print(ptr noundef %11, ptr noundef %12)
  store i32 %13, ptr %3, align 4
  br label %26

14:                                               ; preds = %2
  %15 = load ptr, ptr %5, align 8, !tbaa !45
  %16 = getelementptr inbounds nuw %struct.asn1_string_st, ptr %15, i32 0, i32 1
  %17 = load i32, ptr %16, align 4, !tbaa !49
  %18 = icmp eq i32 %17, 24
  br i1 %18, label %19, label %23

19:                                               ; preds = %14
  %20 = load ptr, ptr %4, align 8, !tbaa !15
  %21 = load ptr, ptr %5, align 8, !tbaa !45
  %22 = call i32 @ASN1_GENERALIZEDTIME_print(ptr noundef %20, ptr noundef %21)
  store i32 %22, ptr %3, align 4
  br label %26

23:                                               ; preds = %14
  %24 = load ptr, ptr %4, align 8, !tbaa !15
  %25 = call i32 @BIO_write(ptr noundef %24, ptr noundef @.str.27, i32 noundef 14)
  store i32 0, ptr %3, align 4
  br label %26

26:                                               ; preds = %23, %19, %10
  %27 = load i32, ptr %3, align 4
  ret i32 %27
}