; Function Attrs: nounwind uwtable
define hidden range(i32 0, 2) i32 @ASN1_TIME_print(ptr noundef %0, ptr noundef readonly captures(none) %1) local_unnamed_addr #0 {
  %3 = getelementptr inbounds nuw i8, ptr %1, i64 4
  %4 = load i32, ptr %3, align 4, !tbaa !36
  switch i32 %4, label %9 [
    i32 23, label %5
    i32 24, label %7
  ]

5:                                                ; preds = %2
  %6 = tail call i32 @ASN1_UTCTIME_print(ptr noundef %0, ptr noundef nonnull %1)
  br label %11

7:                                                ; preds = %2
  %8 = tail call i32 @ASN1_GENERALIZEDTIME_print(ptr noundef %0, ptr noundef nonnull %1)
  br label %11

9:                                                ; preds = %2
  %10 = tail call i32 @BIO_write(ptr noundef %0, ptr noundef nonnull @.str.27, i32 noundef 14) #5
  br label %11

11:                                               ; preds = %9, %7, %5
  %.0 = phi i32 [ %6, %5 ], [ %8, %7 ], [ 0, %9 ]
  ret i32 %.0
}